target datalayout = "e-m:e-p270:32:32-p271:32:32-p272:64:64-i64:64-i128:128-f80:128-n8:16:32:64-S128"
target triple = "x86_64-pc-linux-gnu"

%struct.ObjectAddress = type { i32, i32, i32 }
%struct.HeapTupleData = type { i32, %struct.ItemPointerData, i32, ptr }
%struct.ItemPointerData = type { %struct.BlockIdData, i16 }
%struct.BlockIdData = type { i16, i16 }
%struct.HeapTupleHeaderData = type { %union.anon, %struct.ItemPointerData, i16, i16, i8, [0 x i8] }
%union.anon = type { %struct.HeapTupleFields }
%struct.HeapTupleFields = type { i32, i32, %union.anon.0 }
%union.anon.0 = type { i32 }
%struct.ScanKeyData = type { i32, i16, i16, i32, i32, %struct.FmgrInfo, i64 }
%struct.FmgrInfo = type { ptr, i32, i16, i8, i8, i8, ptr, ptr, ptr }
%struct.FormData_pg_attrdef = type { i32, i32, i16 }

@InvalidObjectAddress = external constant %struct.ObjectAddress, align 4

; Function Attrs: inlinehint nounwind uwtable
define internal ptr @GETSTRUCT(ptr noundef %0) #3 {
  %2 = alloca ptr, align 8
  store ptr %0, ptr %2, align 8
  %3 = load ptr, ptr %2, align 8
  %4 = getelementptr inbounds nuw %struct.HeapTupleData, ptr %3, i32 0, i32 3
  %5 = load ptr, ptr %4, align 8
  %6 = load ptr, ptr %2, align 8
  %7 = getelementptr inbounds nuw %struct.HeapTupleData, ptr %6, i32 0, i32 3
  %8 = load ptr, ptr %7, align 8
  %9 = getelementptr inbounds nuw %struct.HeapTupleHeaderData, ptr %8, i32 0, i32 4
  %10 = load i8, ptr %9, align 2
  %11 = zext i8 %10 to i32
  %12 = sext i32 %11 to i64
  %13 = getelementptr inbounds i8, ptr %5, i64 %12
  ret ptr %13
}

; Function Attrs: inlinehint nounwind uwtable
define internal i64 @ObjectIdGetDatum(i32 noundef %0) #3 {
  %2 = alloca i32, align 4
  store i32 %0, ptr %2, align 4
  %3 = load i32, ptr %2, align 4
  %4 = zext i32 %3 to i64
  ret i64 %4
}

; Function Attrs: nounwind uwtable
define dso_local { i64, i32 } @GetAttrDefaultColumnAddress(i32 noundef %0) #0 {
  %2 = alloca %struct.ObjectAddress, align 4
  %3 = alloca i32, align 4
  %4 = alloca ptr, align 8
  %5 = alloca [1 x %struct.ScanKeyData], align 16
  %6 = alloca ptr, align 8
  %7 = alloca ptr, align 8
  %8 = alloca ptr, align 8
  %9 = alloca { i64, i32 }, align 8
  store i32 %0, ptr %3, align 4
  call void @llvm.memcpy.p0.p0.i64(ptr align 4 %2, ptr align 4 @InvalidObjectAddress, i64 12, i1 false)
  call void @llvm.lifetime.start.p0(i64 8, ptr %4) #7
  call void @llvm.lifetime.start.p0(i64 72, ptr %5) #7
  call void @llvm.lifetime.start.p0(i64 8, ptr %6) #7
  call void @llvm.lifetime.start.p0(i64 8, ptr %7) #7
  %10 = call ptr @table_open(i32 noundef 2604, i32 noundef 1)
  store ptr %10, ptr %4, align 8
  %11 = getelementptr inbounds [1 x %struct.ScanKeyData], ptr %5, i64 0, i64 0
  %12 = load i32, ptr %3, align 4
  %13 = call i64 @ObjectIdGetDatum(i32 noundef %12)
  call void @ScanKeyInit(ptr noundef %11, i16 noundef signext 1, i16 noundef zeroext 3, i32 noundef 184, i64 noundef %13)
  %14 = load ptr, ptr %4, align 8
  %15 = getelementptr inbounds [1 x %struct.ScanKeyData], ptr %5, i64 0, i64 0
  %16 = call ptr @systable_beginscan(ptr noundef %14, i32 noundef 2657, i1 noundef zeroext true, ptr noundef null, i32 noundef 1, ptr noundef %15)
  store ptr %16, ptr %6, align 8
  %17 = load ptr, ptr %6, align 8
  %18 = call ptr @systable_getnext(ptr noundef %17)
  store ptr %18, ptr %7, align 8
  %19 = icmp ne ptr %18, null
  br i1 %19, label %20, label %33

20:                                               ; preds = %1
  call void @llvm.lifetime.start.p0(i64 8, ptr %8) #7
  %21 = load ptr, ptr %7, align 8
  %22 = call ptr @GETSTRUCT(ptr noundef %21)
  store ptr %22, ptr %8, align 8
  %23 = getelementptr inbounds nuw %struct.ObjectAddress, ptr %2, i32 0, i32 0
  store i32 1259, ptr %23, align 4
  %24 = load ptr, ptr %8, align 8
  %25 = getelementptr inbounds nuw %struct.FormData_pg_attrdef, ptr %24, i32 0, i32 1
  %26 = load i32, ptr %25, align 4
  %27 = getelementptr inbounds nuw %struct.ObjectAddress, ptr %2, i32 0, i32 1
  store i32 %26, ptr %27, align 4
  %28 = load ptr, ptr %8, align 8
  %29 = getelementptr inbounds nuw %struct.FormData_pg_attrdef, ptr %28, i32 0, i32 2
  %30 = load i16, ptr %29, align 4
  %31 = sext i16 %30 to i32
  %32 = getelementptr inbounds nuw %struct.ObjectAddress, ptr %2, i32 0, i32 2
  store i32 %31, ptr %32, align 4
  call void @llvm.lifetime.end.p0(i64 8, ptr %8) #7
  br label %33

33:                                               ; preds = %20, %1
  %34 = load ptr, ptr %6, align 8
  call void @systable_endscan(ptr noundef %34)
  %35 = load ptr, ptr %4, align 8
  call void @table_close(ptr noundef %35, i32 noundef 1)
  call void @llvm.lifetime.end.p0(i64 8, ptr %7) #7
  call void @llvm.lifetime.end.p0(i64 8, ptr %6) #7
  call void @llvm.lifetime.end.p0(i64 72, ptr %5) #7
  call void @llvm.lifetime.end.p0(i64 8, ptr %4) #7
  call void @llvm.memcpy.p0.p0.i64(ptr align 8 %9, ptr align 4 %2, i64 12, i1 false)
  %36 = load { i64, i32 }, ptr %9, align 8
  ret { i64, i32 } %36
}