; Function Attrs: nounwind uwtable
define dso_local { i64, i32 } @GetAttrDefaultColumnAddress(i32 noundef %0) local_unnamed_addr #0 {
  %2 = alloca [1 x %struct.ScanKeyData], align 16
  %.sroa.07.0.copyload = load i64, ptr @InvalidObjectAddress, align 4
  %.sroa.07.sroa.3.0.extract.shift = lshr i64 %.sroa.07.0.copyload, 32
  %.sroa.07.sroa.3.0.extract.trunc = trunc nuw i64 %.sroa.07.sroa.3.0.extract.shift to i32
  %.sroa.4.0.copyload = load i32, ptr getelementptr inbounds nuw (i8, ptr @InvalidObjectAddress, i64 8), align 4
  call void @llvm.lifetime.start.p0(i64 72, ptr nonnull %2) #6
  %3 = tail call ptr @table_open(i32 noundef 2604, i32 noundef 1) #6
  %4 = zext i32 %0 to i64
  call void @ScanKeyInit(ptr noundef nonnull %2, i16 noundef signext 1, i16 noundef zeroext 3, i32 noundef 184, i64 noundef %4) #6
  %5 = call ptr @systable_beginscan(ptr noundef %3, i32 noundef 2657, i1 noundef zeroext true, ptr noundef null, i32 noundef 1, ptr noundef nonnull %2) #6
  %6 = call ptr @systable_getnext(ptr noundef %5) #6
  %.not = icmp eq ptr %6, null
  br i1 %.not, label %18, label %7

7:                                                ; preds = %1
  %8 = getelementptr i8, ptr %6, i64 16
  %.val = load ptr, ptr %8, align 8
  %9 = getelementptr inbounds nuw i8, ptr %.val, i64 22
  %10 = load i8, ptr %9, align 2
  %11 = zext i8 %10 to i64
  %12 = getelementptr inbounds nuw i8, ptr %.val, i64 %11
  %13 = getelementptr inbounds nuw i8, ptr %12, i64 4
  %14 = load i32, ptr %13, align 4
  %15 = getelementptr inbounds nuw i8, ptr %12, i64 8
  %16 = load i16, ptr %15, align 4
  %17 = sext i16 %16 to i32
  br label %18

18:                                               ; preds = %7, %1
  %.sroa.4.0 = phi i32 [ %17, %7 ], [ %.sroa.4.0.copyload, %1 ]
  %.sroa.07.sroa.0.0 = phi i64 [ 1259, %7 ], [ %.sroa.07.0.copyload, %1 ]
  %.sroa.07.sroa.3.0 = phi i32 [ %14, %7 ], [ %.sroa.07.sroa.3.0.extract.trunc, %1 ]
  call void @systable_endscan(ptr noundef %5) #6
  call void @table_close(ptr noundef %3, i32 noundef 1) #6
  call void @llvm.lifetime.end.p0(i64 72, ptr nonnull %2) #6
  %.sroa.07.sroa.3.0.insert.ext = zext i32 %.sroa.07.sroa.3.0 to i64
  %.sroa.07.sroa.3.0.insert.shift = shl nuw i64 %.sroa.07.sroa.3.0.insert.ext, 32
  %.sroa.07.sroa.0.0.insert.ext = and i64 %.sroa.07.sroa.0.0, 4294967295
  %.sroa.07.sroa.0.0.insert.insert = or disjoint i64 %.sroa.07.sroa.3.0.insert.shift, %.sroa.07.sroa.0.0.insert.ext
  %.fca.0.insert = insertvalue { i64, i32 } poison, i64 %.sroa.07.sroa.0.0.insert.insert, 0
  %.fca.1.insert = insertvalue { i64, i32 } %.fca.0.insert, i32 %.sroa.4.0, 1
  ret { i64, i32 } %.fca.1.insert
}